; Function Attrs: nounwind uwtable
define dso_local range(i64 0, 32768) i64 @int2abs(ptr noundef readonly captures(none) %0) local_unnamed_addr #0 {
  %2 = getelementptr inbounds nuw i8, ptr %0, i64 32
  %3 = load i64, ptr %2, align 8
  %4 = trunc i64 %3 to i16
  %5 = icmp eq i16 %4, -32768
  br i1 %5, label %6, label %10, !prof !14

6:                                                ; preds = %1
  %7 = tail call zeroext i1 @errstart_cold(i32 noundef 21, ptr noundef null) #15
  tail call void @llvm.assume(i1 %7)
  %8 = tail call i32 @errcode(i32 noundef 50331778) #13
  %9 = tail call i32 (ptr, ...) @errmsg(ptr noundef nonnull @.str.5) #13
  tail call void @errfinish(ptr noundef nonnull @.str.2, i32 noundef 1213, ptr noundef nonnull @__func__.int2abs) #13
  unreachable

10:                                               ; preds = %1
  %11 = tail call i16 @llvm.abs.i16(i16 %4, i1 true)
  %12 = zext nneg i16 %11 to i64
  ret i64 %12
}